; Function Attrs: mustprogress nofree nounwind willreturn memory(write, argmem: readwrite) uwtable
define noundef i32 @_ZNK10open_spiel11negotiation15NegotiationGame18NumDistinctActionsEv(ptr nocapture noundef nonnull readonly align 8 dereferenceable(336) %0) unnamed_addr #5 align 2 {
  %2 = getelementptr inbounds nuw i8, ptr %0, i64 281
  %3 = load i8, ptr %2, align 1
  %4 = trunc i8 %3 to i1
  %5 = getelementptr inbounds nuw i8, ptr %0, i64 284
  %6 = load i32, ptr %5, align 4
  %7 = sitofp i32 %6 to double
  %8 = tail call noundef double @pow(double noundef 6.000000e+00, double noundef %7) #32
  %9 = fptosi double %8 to i32
  %10 = add nsw i32 %9, 1
  br i1 %4, label %11, label %21

11:                                               ; preds = %1
  %12 = getelementptr inbounds nuw i8, ptr %0, i64 288
  %13 = load i32, ptr %12, align 8
  %14 = getelementptr inbounds nuw i8, ptr %0, i64 292
  %15 = load i32, ptr %14, align 4
  %16 = sitofp i32 %13 to double
  %17 = sitofp i32 %15 to double
  %18 = tail call noundef double @pow(double noundef %16, double noundef %17) #32
  %19 = fptosi double %18 to i32
  %20 = add nsw i32 %10, %19
  br label %21

21:                                               ; preds = %1, %11
  %.0 = phi i32 [ %20, %11 ], [ %10, %1 ]
  ret i32 %.0
}